target datalayout = "e-m:e-p270:32:32-p271:32:32-p272:64:64-i64:64-i128:128-f80:128-n8:16:32:64-S128"
target triple = "x86_64-pc-linux-gnu"

%struct.AVProbeData = type { ptr, ptr, i32, ptr }

; Function Attrs: nounwind uwtable
define internal i32 @mtv_probe(ptr noundef %0) #0 {
  %2 = alloca i32, align 4
  %3 = alloca ptr, align 8
  store ptr %0, ptr %3, align 8, !tbaa !4
  %4 = load ptr, ptr %3, align 8, !tbaa !4
  %5 = getelementptr inbounds nuw %struct.AVProbeData, ptr %4, i32 0, i32 2
  %6 = load i32, ptr %5, align 8, !tbaa !9
  %7 = icmp slt i32 %6, 57
  br i1 %7, label %8, label %9

8:                                                ; preds = %1
  store i32 0, ptr %2, align 4
  br label %121

9:                                                ; preds = %1
  %10 = load ptr, ptr %3, align 8, !tbaa !4
  %11 = getelementptr inbounds nuw %struct.AVProbeData, ptr %10, i32 0, i32 1
  %12 = load ptr, ptr %11, align 8, !tbaa !13
  %13 = load i8, ptr %12, align 1, !tbaa !14
  %14 = zext i8 %13 to i32
  %15 = icmp ne i32 %14, 65
  br i1 %15, label %32, label %16

16:                                               ; preds = %9
  %17 = load ptr, ptr %3, align 8, !tbaa !4
  %18 = getelementptr inbounds nuw %struct.AVProbeData, ptr %17, i32 0, i32 1
  %19 = load ptr, ptr %18, align 8, !tbaa !13
  %20 = getelementptr inbounds i8, ptr %19, i64 1
  %21 = load i8, ptr %20, align 1, !tbaa !14
  %22 = zext i8 %21 to i32
  %23 = icmp ne i32 %22, 77
  br i1 %23, label %32, label %24

24:                                               ; preds = %16
  %25 = load ptr, ptr %3, align 8, !tbaa !4
  %26 = getelementptr inbounds nuw %struct.AVProbeData, ptr %25, i32 0, i32 1
  %27 = load ptr, ptr %26, align 8, !tbaa !13
  %28 = getelementptr inbounds i8, ptr %27, i64 2
  %29 = load i8, ptr %28, align 1, !tbaa !14
  %30 = zext i8 %29 to i32
  %31 = icmp ne i32 %30, 86
  br i1 %31, label %32, label %33

32:                                               ; preds = %24, %16, %9
  store i32 0, ptr %2, align 4
  br label %121

33:                                               ; preds = %24
  %34 = load ptr, ptr %3, align 8, !tbaa !4
  %35 = getelementptr inbounds nuw %struct.AVProbeData, ptr %34, i32 0, i32 1
  %36 = load ptr, ptr %35, align 8, !tbaa !13
  %37 = getelementptr inbounds i8, ptr %36, i64 43
  %38 = load i8, ptr %37, align 1, !tbaa !14
  %39 = zext i8 %38 to i32
  %40 = icmp ne i32 %39, 77
  br i1 %40, label %57, label %41

41:                                               ; preds = %33
  %42 = load ptr, ptr %3, align 8, !tbaa !4
  %43 = getelementptr inbounds nuw %struct.AVProbeData, ptr %42, i32 0, i32 1
  %44 = load ptr, ptr %43, align 8, !tbaa !13
  %45 = getelementptr inbounds i8, ptr %44, i64 44
  %46 = load i8, ptr %45, align 1, !tbaa !14
  %47 = zext i8 %46 to i32
  %48 = icmp ne i32 %47, 80
  br i1 %48, label %57, label %49

49:                                               ; preds = %41
  %50 = load ptr, ptr %3, align 8, !tbaa !4
  %51 = getelementptr inbounds nuw %struct.AVProbeData, ptr %50, i32 0, i32 1
  %52 = load ptr, ptr %51, align 8, !tbaa !13
  %53 = getelementptr inbounds i8, ptr %52, i64 45
  %54 = load i8, ptr %53, align 1, !tbaa !14
  %55 = zext i8 %54 to i32
  %56 = icmp ne i32 %55, 51
  br i1 %56, label %57, label %58

57:                                               ; preds = %49, %41, %33
  store i32 0, ptr %2, align 4
  br label %121

58:                                               ; preds = %49
  %59 = load ptr, ptr %3, align 8, !tbaa !4
  %60 = getelementptr inbounds nuw %struct.AVProbeData, ptr %59, i32 0, i32 1
  %61 = load ptr, ptr %60, align 8, !tbaa !13
  %62 = getelementptr inbounds i8, ptr %61, i64 51
  %63 = load i8, ptr %62, align 1, !tbaa !14
  %64 = zext i8 %63 to i32
  %65 = icmp ne i32 %64, 0
  br i1 %65, label %66, label %81

66:                                               ; preds = %58
  %67 = load ptr, ptr %3, align 8, !tbaa !4
  %68 = getelementptr inbounds nuw %struct.AVProbeData, ptr %67, i32 0, i32 1
  %69 = load ptr, ptr %68, align 8, !tbaa !13
  %70 = getelementptr inbounds i8, ptr %69, i64 52
  %71 = load i16, ptr %70, align 1, !tbaa !14
  %72 = zext i16 %71 to i32
  %73 = load ptr, ptr %3, align 8, !tbaa !4
  %74 = getelementptr inbounds nuw %struct.AVProbeData, ptr %73, i32 0, i32 1
  %75 = load ptr, ptr %74, align 8, !tbaa !13
  %76 = getelementptr inbounds i8, ptr %75, i64 54
  %77 = load i16, ptr %76, align 1, !tbaa !14
  %78 = zext i16 %77 to i32
  %79 = or i32 %72, %78
  %80 = icmp ne i32 %79, 0
  br i1 %80, label %82, label %81

81:                                               ; preds = %66, %58
  store i32 0, ptr %2, align 4
  br label %121

82:                                               ; preds = %66
  %83 = load ptr, ptr %3, align 8, !tbaa !4
  %84 = getelementptr inbounds nuw %struct.AVProbeData, ptr %83, i32 0, i32 1
  %85 = load ptr, ptr %84, align 8, !tbaa !13
  %86 = getelementptr inbounds i8, ptr %85, i64 52
  %87 = load i16, ptr %86, align 1, !tbaa !14
  %88 = icmp ne i16 %87, 0
  br i1 %88, label %89, label %96

89:                                               ; preds = %82
  %90 = load ptr, ptr %3, align 8, !tbaa !4
  %91 = getelementptr inbounds nuw %struct.AVProbeData, ptr %90, i32 0, i32 1
  %92 = load ptr, ptr %91, align 8, !tbaa !13
  %93 = getelementptr inbounds i8, ptr %92, i64 54
  %94 = load i16, ptr %93, align 1, !tbaa !14
  %95 = icmp ne i16 %94, 0
  br i1 %95, label %105, label %96

96:                                               ; preds = %89, %82
  %97 = load ptr, ptr %3, align 8, !tbaa !4
  %98 = getelementptr inbounds nuw %struct.AVProbeData, ptr %97, i32 0, i32 1
  %99 = load ptr, ptr %98, align 8, !tbaa !13
  %100 = getelementptr inbounds i8, ptr %99, i64 56
  %101 = load i16, ptr %100, align 1, !tbaa !14
  %102 = icmp ne i16 %101, 0
  br i1 %102, label %103, label %104

103:                                              ; preds = %96
  store i32 50, ptr %2, align 4
  br label %121

104:                                              ; preds = %96
  store i32 0, ptr %2, align 4
  br label %121

105:                                              ; preds = %89
  %106 = load ptr, ptr %3, align 8, !tbaa !4
  %107 = getelementptr inbounds nuw %struct.AVProbeData, ptr %106, i32 0, i32 1
  %108 = load ptr, ptr %107, align 8, !tbaa !13
  %109 = getelementptr inbounds i8, ptr %108, i64 51
  %110 = load i8, ptr %109, align 1, !tbaa !14
  %111 = zext i8 %110 to i32
  %112 = icmp ne i32 %111, 16
  br i1 %112, label %113, label %114

113:                                              ; preds = %105
  store i32 25, ptr %2, align 4
  br label %121

114:                                              ; preds = %105
  %115 = load ptr, ptr %3, align 8, !tbaa !4
  %116 = getelementptr inbounds nuw %struct.AVProbeData, ptr %115, i32 0, i32 2
  %117 = load i32, ptr %116, align 8, !tbaa !9
  %118 = icmp slt i32 %117, 512
  br i1 %118, label %119, label %120

119:                                              ; preds = %114
  store i32 50, ptr %2, align 4
  br label %121

120:                                              ; preds = %114
  store i32 100, ptr %2, align 4
  br label %121

121:                                              ; preds = %120, %119, %113, %104, %103, %81, %57, %32, %8
  %122 = load i32, ptr %2, align 4
  ret i32 %122
}