; Function Attrs: mustprogress nofree norecurse nosync nounwind willreturn memory(read, inaccessiblemem: none) uwtable
define internal range(i32 0, 101) i32 @mtv_probe(ptr noundef readonly captures(none) %0) #0 {
  %2 = getelementptr inbounds nuw i8, ptr %0, i64 16
  %3 = load i32, ptr %2, align 8, !tbaa !4
  %4 = icmp slt i32 %3, 57
  br i1 %4, label %40, label %5

5:                                                ; preds = %1
  %6 = getelementptr inbounds nuw i8, ptr %0, i64 8
  %7 = load ptr, ptr %6, align 8, !tbaa !11
  %8 = load i8, ptr %7, align 1, !tbaa !12
  %.not = icmp eq i8 %8, 65
  br i1 %.not, label %9, label %40

9:                                                ; preds = %5
  %10 = getelementptr inbounds nuw i8, ptr %7, i64 1
  %11 = load i8, ptr %10, align 1, !tbaa !12
  %.not17 = icmp eq i8 %11, 77
  br i1 %.not17, label %12, label %40

12:                                               ; preds = %9
  %13 = getelementptr inbounds nuw i8, ptr %7, i64 2
  %14 = load i8, ptr %13, align 1, !tbaa !12
  %.not18 = icmp eq i8 %14, 86
  br i1 %.not18, label %15, label %40

15:                                               ; preds = %12
  %16 = getelementptr inbounds nuw i8, ptr %7, i64 43
  %17 = load i8, ptr %16, align 1, !tbaa !12
  %.not19 = icmp eq i8 %17, 77
  br i1 %.not19, label %18, label %40

18:                                               ; preds = %15
  %19 = getelementptr inbounds nuw i8, ptr %7, i64 44
  %20 = load i8, ptr %19, align 1, !tbaa !12
  %.not20 = icmp eq i8 %20, 80
  br i1 %.not20, label %21, label %40

21:                                               ; preds = %18
  %22 = getelementptr inbounds nuw i8, ptr %7, i64 45
  %23 = load i8, ptr %22, align 1, !tbaa !12
  %.not21 = icmp eq i8 %23, 51
  br i1 %.not21, label %24, label %40

24:                                               ; preds = %21
  %25 = getelementptr inbounds nuw i8, ptr %7, i64 51
  %26 = load i8, ptr %25, align 1, !tbaa !12
  %.not22 = icmp eq i8 %26, 0
  br i1 %.not22, label %40, label %27

27:                                               ; preds = %24
  %28 = getelementptr inbounds nuw i8, ptr %7, i64 52
  %29 = load i16, ptr %28, align 1, !tbaa !12
  %30 = getelementptr inbounds nuw i8, ptr %7, i64 54
  %31 = load i16, ptr %30, align 1, !tbaa !12
  %32 = or i16 %31, %29
  %.not23 = icmp eq i16 %32, 0
  br i1 %.not23, label %40, label %33

33:                                               ; preds = %27
  %.not24 = icmp eq i16 %29, 0
  %.not25 = icmp eq i16 %31, 0
  %or.cond = or i1 %.not24, %.not25
  br i1 %or.cond, label %34, label %37

34:                                               ; preds = %33
  %35 = getelementptr inbounds nuw i8, ptr %7, i64 56
  %36 = load i16, ptr %35, align 1, !tbaa !12
  %.not26 = icmp eq i16 %36, 0
  %. = select i1 %.not26, i32 0, i32 50
  br label %40

37:                                               ; preds = %33
  %.not27 = icmp eq i8 %26, 16
  br i1 %.not27, label %38, label %40

38:                                               ; preds = %37
  %39 = icmp samesign ult i32 %3, 512
  %.28 = select i1 %39, i32 50, i32 100
  br label %40

40:                                               ; preds = %38, %37, %34, %24, %27, %15, %18, %21, %5, %9, %12, %1
  %.0 = phi i32 [ 0, %1 ], [ 0, %12 ], [ 0, %9 ], [ 0, %5 ], [ 0, %21 ], [ 0, %18 ], [ 0, %15 ], [ 0, %27 ], [ 0, %24 ], [ %., %34 ], [ 25, %37 ], [ %.28, %38 ]
  ret i32 %.0
}